target datalayout = "e-m:e-p270:32:32-p271:32:32-p272:64:64-i64:64-i128:128-f80:128-n8:16:32:64-S128"
target triple = "x86_64-pc-linux-gnu"

%class.QString = type { %struct.QArrayDataPointer }
%struct.QArrayDataPointer = type { ptr, ptr, i64 }
%class.ConversationDialog = type <{ %class.TrafficTableDialog, ptr, ptr, ptr, i8, [7 x i8] }>
%class.TrafficTableDialog = type { %class.WiresharkDialog.base, ptr, ptr }
%class.WiresharkDialog.base = type <{ %class.GeometryStateDialog, ptr, i8, [7 x i8], %class.QString, %class.QList, i32, i8 }>
%class.GeometryStateDialog = type { %class.QDialog, %class.QString, ptr }
%class.QDialog = type { %class.QWidget }
%class.QWidget = type { %class.QObject, %class.QPaintDevice.base, ptr }
%class.QObject = type { ptr, %class.QScopedPointer }
%class.QScopedPointer = type { ptr }
%class.QPaintDevice.base = type <{ ptr, i16 }>
%class.QList = type { %struct.QArrayDataPointer.0 }
%struct.QArrayDataPointer.0 = type { ptr, ptr, i64 }

; Function Attrs: mustprogress null_pointer_is_valid sspstrong uwtable
define void @_ZN18ConversationDialog18captureFileClosingEv(ptr noundef align 8 dereferenceable_or_null(185) %0) unnamed_addr #4 align 2 {
  %2 = alloca ptr, align 8
  store ptr %0, ptr %2, align 8
  %3 = load ptr, ptr %2, align 8
  %4 = call noundef ptr @_ZNK18TrafficTableDialog10trafficTabEv(ptr noundef align 8 dereferenceable_or_null(160) %3)
  call void @_ZN10TrafficTab10disableTapEv(ptr noundef align 8 dereferenceable_or_null(130) %4)
  %5 = call noundef ptr @_ZNK18TrafficTableDialog21displayFilterCheckBoxEv(ptr noundef align 8 dereferenceable_or_null(160) %3)
  call void @_ZN7QWidget10setEnabledEb(ptr noundef align 8 dereferenceable_or_null(40) %5, i1 noundef zeroext false)
  %6 = getelementptr inbounds nuw %class.ConversationDialog, ptr %3, i32 0, i32 1
  %7 = load ptr, ptr %6, align 8
  call void @_ZN7QWidget10setEnabledEb(ptr noundef align 8 dereferenceable_or_null(40) %7, i1 noundef zeroext false)
  %8 = getelementptr inbounds nuw %class.ConversationDialog, ptr %3, i32 0, i32 2
  %9 = load ptr, ptr %8, align 8
  call void @_ZN7QWidget10setEnabledEb(ptr noundef align 8 dereferenceable_or_null(40) %9, i1 noundef zeroext false)
  call void @_ZN15WiresharkDialog18captureFileClosingEv(ptr noundef align 8 dereferenceable_or_null(141) %3)
  ret void
}