; Function Attrs: mustprogress null_pointer_is_valid sspstrong uwtable
define void @_ZN18ConversationDialog18captureFileClosingEv(ptr noundef align 8 dereferenceable_or_null(185) %0) unnamed_addr #2 align 2 {
  %2 = tail call noundef ptr @_ZNK18TrafficTableDialog10trafficTabEv(ptr noundef align 8 dereferenceable_or_null(160) %0)
  tail call void @_ZN10TrafficTab10disableTapEv(ptr noundef align 8 dereferenceable_or_null(130) %2)
  %3 = tail call noundef ptr @_ZNK18TrafficTableDialog21displayFilterCheckBoxEv(ptr noundef align 8 dereferenceable_or_null(160) %0)
  tail call void @_ZN7QWidget10setEnabledEb(ptr noundef align 8 dereferenceable_or_null(40) %3, i1 noundef zeroext false)
  %4 = getelementptr inbounds nuw i8, ptr %0, i64 160
  %5 = load ptr, ptr %4, align 8
  tail call void @_ZN7QWidget10setEnabledEb(ptr noundef align 8 dereferenceable_or_null(40) %5, i1 noundef zeroext false)
  %6 = getelementptr inbounds nuw i8, ptr %0, i64 168
  %7 = load ptr, ptr %6, align 8
  tail call void @_ZN7QWidget10setEnabledEb(ptr noundef align 8 dereferenceable_or_null(40) %7, i1 noundef zeroext false)
  tail call void @_ZN15WiresharkDialog18captureFileClosingEv(ptr noundef align 8 dereferenceable_or_null(141) %0)
  ret void
}